target datalayout = "e-m:e-p270:32:32-p271:32:32-p272:64:64-i64:64-i128:128-f80:128-n8:16:32:64-S128"
target triple = "x86_64-pc-linux-gnu"

%struct.YuvPixel = type { i8, i8, i8 }

; Function Attrs: cold nounwind optsize uwtable
define internal void @mp_set_zero_yuv(ptr noundef %0) #0 {
  %2 = alloca ptr, align 8
  %3 = alloca i32, align 4
  %4 = alloca i32, align 4
  store ptr %0, ptr %2, align 8, !tbaa !66
  call void @llvm.lifetime.start.p0(i64 4, ptr %3) #9
  call void @llvm.lifetime.start.p0(i64 4, ptr %4) #9
  store i32 0, ptr %3, align 4, !tbaa !32
  br label %5

5:                                                ; preds = %98, %1
  %6 = load i32, ptr %3, align 4, !tbaa !32
  %7 = icmp slt i32 %6, 31
  br i1 %7, label %8, label %101

8:                                                ; preds = %5
  store i32 31, ptr %4, align 4, !tbaa !32
  br label %9

9:                                                ; preds = %49, %8
  %10 = load i32, ptr %4, align 4, !tbaa !32
  %11 = load i32, ptr %3, align 4, !tbaa !32
  %12 = icmp sgt i32 %10, %11
  br i1 %12, label %13, label %52

13:                                               ; preds = %9
  %14 = load ptr, ptr %2, align 8, !tbaa !66
  %15 = load i32, ptr %4, align 4, !tbaa !32
  %16 = sext i32 %15 to i64
  %17 = getelementptr inbounds %struct.YuvPixel, ptr %14, i64 %16
  %18 = getelementptr inbounds nuw %struct.YuvPixel, ptr %17, i32 0, i32 2
  %19 = load i8, ptr %18, align 1, !tbaa !67
  %20 = sext i8 %19 to i32
  %21 = load ptr, ptr %2, align 8, !tbaa !66
  %22 = load i32, ptr %4, align 4, !tbaa !32
  %23 = sext i32 %22 to i64
  %24 = getelementptr inbounds %struct.YuvPixel, ptr %21, i64 %23
  %25 = getelementptr inbounds nuw %struct.YuvPixel, ptr %24, i32 0, i32 1
  %26 = load i8, ptr %25, align 1, !tbaa !69
  %27 = sext i8 %26 to i32
  %28 = or i32 %20, %27
  %29 = load ptr, ptr %2, align 8, !tbaa !66
  %30 = load i32, ptr %4, align 4, !tbaa !32
  %31 = sext i32 %30 to i64
  %32 = getelementptr inbounds %struct.YuvPixel, ptr %29, i64 %31
  %33 = getelementptr inbounds nuw %struct.YuvPixel, ptr %32, i32 0, i32 0
  %34 = load i8, ptr %33, align 1, !tbaa !70
  %35 = sext i8 %34 to i32
  %36 = or i32 %28, %35
  %37 = icmp ne i32 %36, 0
  br i1 %37, label %48, label %38

38:                                               ; preds = %13
  %39 = load ptr, ptr %2, align 8, !tbaa !66
  %40 = load i32, ptr %4, align 4, !tbaa !32
  %41 = sext i32 %40 to i64
  %42 = getelementptr inbounds %struct.YuvPixel, ptr %39, i64 %41
  %43 = load ptr, ptr %2, align 8, !tbaa !66
  %44 = load i32, ptr %4, align 4, !tbaa !32
  %45 = sub nsw i32 %44, 1
  %46 = sext i32 %45 to i64
  %47 = getelementptr inbounds %struct.YuvPixel, ptr %43, i64 %46
  call void @llvm.memcpy.p0.p0.i64(ptr align 1 %42, ptr align 1 %47, i64 3, i1 false), !tbaa.struct !75
  br label %48

48:                                               ; preds = %38, %13
  br label %49

49:                                               ; preds = %48
  %50 = load i32, ptr %4, align 4, !tbaa !32
  %51 = add nsw i32 %50, -1
  store i32 %51, ptr %4, align 4, !tbaa !32
  br label %9, !llvm.loop !76

52:                                               ; preds = %9
  store i32 0, ptr %4, align 4, !tbaa !32
  br label %53

53:                                               ; preds = %94, %52
  %54 = load i32, ptr %4, align 4, !tbaa !32
  %55 = load i32, ptr %3, align 4, !tbaa !32
  %56 = sub nsw i32 31, %55
  %57 = icmp slt i32 %54, %56
  br i1 %57, label %58, label %97

58:                                               ; preds = %53
  %59 = load ptr, ptr %2, align 8, !tbaa !66
  %60 = load i32, ptr %4, align 4, !tbaa !32
  %61 = sext i32 %60 to i64
  %62 = getelementptr inbounds %struct.YuvPixel, ptr %59, i64 %61
  %63 = getelementptr inbounds nuw %struct.YuvPixel, ptr %62, i32 0, i32 2
  %64 = load i8, ptr %63, align 1, !tbaa !67
  %65 = sext i8 %64 to i32
  %66 = load ptr, ptr %2, align 8, !tbaa !66
  %67 = load i32, ptr %4, align 4, !tbaa !32
  %68 = sext i32 %67 to i64
  %69 = getelementptr inbounds %struct.YuvPixel, ptr %66, i64 %68
  %70 = getelementptr inbounds nuw %struct.YuvPixel, ptr %69, i32 0, i32 1
  %71 = load i8, ptr %70, align 1, !tbaa !69
  %72 = sext i8 %71 to i32
  %73 = or i32 %65, %72
  %74 = load ptr, ptr %2, align 8, !tbaa !66
  %75 = load i32, ptr %4, align 4, !tbaa !32
  %76 = sext i32 %75 to i64
  %77 = getelementptr inbounds %struct.YuvPixel, ptr %74, i64 %76
  %78 = getelementptr inbounds nuw %struct.YuvPixel, ptr %77, i32 0, i32 0
  %79 = load i8, ptr %78, align 1, !tbaa !70
  %80 = sext i8 %79 to i32
  %81 = or i32 %73, %80
  %82 = icmp ne i32 %81, 0
  br i1 %82, label %93, label %83

83:                                               ; preds = %58
  %84 = load ptr, ptr %2, align 8, !tbaa !66
  %85 = load i32, ptr %4, align 4, !tbaa !32
  %86 = sext i32 %85 to i64
  %87 = getelementptr inbounds %struct.YuvPixel, ptr %84, i64 %86
  %88 = load ptr, ptr %2, align 8, !tbaa !66
  %89 = load i32, ptr %4, align 4, !tbaa !32
  %90 = add nsw i32 %89, 1
  %91 = sext i32 %90 to i64
  %92 = getelementptr inbounds %struct.YuvPixel, ptr %88, i64 %91
  call void @llvm.memcpy.p0.p0.i64(ptr align 1 %87, ptr align 1 %92, i64 3, i1 false), !tbaa.struct !75
  br label %93

93:                                               ; preds = %83, %58
  br label %94

94:                                               ; preds = %93
  %95 = load i32, ptr %4, align 4, !tbaa !32
  %96 = add nsw i32 %95, 1
  store i32 %96, ptr %4, align 4, !tbaa !32
  br label %53, !llvm.loop !77

97:                                               ; preds = %53
  br label %98

98:                                               ; preds = %97
  %99 = load i32, ptr %3, align 4, !tbaa !32
  %100 = add nsw i32 %99, 1
  store i32 %100, ptr %3, align 4, !tbaa !32
  br label %5, !llvm.loop !78

101:                                              ; preds = %5
  call void @llvm.lifetime.end.p0(i64 4, ptr %4) #9
  call void @llvm.lifetime.end.p0(i64 4, ptr %3) #9
  ret void
}