; Function Attrs: cold nofree norecurse nosync nounwind optsize memory(argmem: readwrite) uwtable
define internal fastcc void @mp_set_zero_yuv(ptr noundef captures(none) %0) unnamed_addr #6 {
  br label %.preheader29

.preheader29:                                     ; preds = %1, %._crit_edge
  %indvars.iv42 = phi i64 [ 0, %1 ], [ %indvars.iv.next43, %._crit_edge ]
  %indvars.iv40 = phi i64 [ 31, %1 ], [ %indvars.iv.next41, %._crit_edge ]
  br label %2

2:                                                ; preds = %.preheader29, %13
  %indvars.iv = phi i64 [ 31, %.preheader29 ], [ %indvars.iv.next, %13 ]
  %3 = getelementptr inbounds %struct.YuvPixel, ptr %0, i64 %indvars.iv
  %4 = getelementptr inbounds nuw i8, ptr %3, i64 2
  %5 = load i8, ptr %4, align 1, !tbaa !74
  %6 = getelementptr inbounds nuw i8, ptr %3, i64 1
  %7 = load i8, ptr %6, align 1, !tbaa !72
  %8 = or i8 %7, %5
  %9 = load i8, ptr %3, align 1, !tbaa !78
  %10 = or i8 %8, %9
  %.not28 = icmp eq i8 %10, 0
  br i1 %.not28, label %11, label %13

11:                                               ; preds = %2
  %12 = getelementptr i8, ptr %3, i64 -3
  tail call void @llvm.memcpy.p0.p0.i64(ptr noundef nonnull align 1 dereferenceable(3) %3, ptr noundef nonnull align 1 dereferenceable(3) %12, i64 3, i1 false), !tbaa.struct !83
  br label %13

13:                                               ; preds = %2, %11
  %indvars.iv.next = add nsw i64 %indvars.iv, -1
  %14 = icmp samesign ugt i64 %indvars.iv.next, %indvars.iv42
  br i1 %14, label %2, label %.lr.ph, !llvm.loop !84

.lr.ph:                                           ; preds = %13, %25
  %indvars.iv35 = phi i64 [ %indvars.iv.next36, %25 ], [ 0, %13 ]
  %15 = getelementptr inbounds nuw %struct.YuvPixel, ptr %0, i64 %indvars.iv35
  %16 = getelementptr inbounds nuw i8, ptr %15, i64 2
  %17 = load i8, ptr %16, align 1, !tbaa !74
  %18 = getelementptr inbounds nuw i8, ptr %15, i64 1
  %19 = load i8, ptr %18, align 1, !tbaa !72
  %20 = or i8 %19, %17
  %21 = load i8, ptr %15, align 1, !tbaa !78
  %22 = or i8 %20, %21
  %.not = icmp eq i8 %22, 0
  br i1 %.not, label %23, label %25

23:                                               ; preds = %.lr.ph
  %24 = getelementptr inbounds nuw i8, ptr %15, i64 3
  tail call void @llvm.memcpy.p0.p0.i64(ptr noundef nonnull align 1 dereferenceable(3) %15, ptr noundef nonnull align 1 dereferenceable(3) %24, i64 3, i1 false), !tbaa.struct !83
  br label %25

25:                                               ; preds = %.lr.ph, %23
  %indvars.iv.next36 = add nuw nsw i64 %indvars.iv35, 1
  %exitcond.not = icmp eq i64 %indvars.iv.next36, %indvars.iv40
  br i1 %exitcond.not, label %._crit_edge, label %.lr.ph, !llvm.loop !85

._crit_edge:                                      ; preds = %25
  %indvars.iv.next43 = add nuw nsw i64 %indvars.iv42, 1
  %indvars.iv.next41 = add nsw i64 %indvars.iv40, -1
  %exitcond47.not = icmp eq i64 %indvars.iv.next43, 31
  br i1 %exitcond47.not, label %26, label %.preheader29, !llvm.loop !86

26:                                               ; preds = %._crit_edge
  ret void
}